; Function Attrs: nounwind uwtable
define internal ptr @builtin_setattr(ptr readnone captures(none) %0, ptr noundef readonly captures(none) %1, i64 noundef %2) #0 {
  %or.cond = icmp eq i64 %2, 3
  br i1 %or.cond, label %6, label %4

4:                                                ; preds = %3
  %5 = tail call i32 @_PyArg_CheckPositional(ptr noundef nonnull @.str.91, i64 noundef %2, i64 noundef 3, i64 noundef 3) #9
  %.not = icmp eq i32 %5, 0
  br i1 %.not, label %13, label %6

6:                                                ; preds = %3, %4
  %7 = load ptr, ptr %1, align 8, !tbaa !39
  %8 = getelementptr i8, ptr %1, i64 8
  %9 = load ptr, ptr %8, align 8, !tbaa !39
  %10 = getelementptr i8, ptr %1, i64 16
  %11 = load ptr, ptr %10, align 8, !tbaa !39
  %12 = tail call i32 @PyObject_SetAttr(ptr noundef %7, ptr noundef %9, ptr noundef %11) #9
  %.not.i = icmp eq i32 %12, 0
  %_Py_NoneStruct..i = select i1 %.not.i, ptr @_Py_NoneStruct, ptr null
  br label %13

13:                                               ; preds = %4, %6
  %.0 = phi ptr [ %_Py_NoneStruct..i, %6 ], [ null, %4 ]
  ret ptr %.0
}